; Function Attrs: nounwind sspstrong uwtable
define internal noundef i64 @nurat_loader(i64 noundef returned %0, i64 noundef %1) #0 {
  %3 = load i64, ptr @id_i_num, align 8, !tbaa !18
  %4 = tail call i64 @rb_ivar_get(i64 noundef %1, i64 noundef %3) #17
  %5 = load i64, ptr @id_i_den, align 8, !tbaa !18
  %6 = tail call i64 @rb_ivar_get(i64 noundef %1, i64 noundef %5) #17
  %7 = and i64 %4, 1
  %.not.i.i = icmp eq i64 %7, 0
  br i1 %.not.i.i, label %8, label %nurat_int_check.exit

8:                                                ; preds = %2
  %9 = icmp eq i64 %4, 0
  %10 = and i64 %4, 6
  %11 = icmp ne i64 %10, 0
  %12 = or i1 %9, %11
  br i1 %12, label %rb_integer_type_p.exit.thread5.i, label %rb_integer_type_p.exit.i

rb_integer_type_p.exit.i:                         ; preds = %8
  %13 = inttoptr i64 %4 to ptr
  %14 = load i64, ptr %13, align 8, !tbaa !7
  %15 = and i64 %14, 31
  %16 = icmp eq i64 %15, 10
  br i1 %16, label %nurat_int_check.exit, label %rb_integer_type_p.exit.thread5.i

rb_integer_type_p.exit.thread5.i:                 ; preds = %rb_integer_type_p.exit.i, %8
  %17 = load i64, ptr @rb_cNumeric, align 8, !tbaa !18
  %18 = tail call i64 @rb_obj_is_kind_of(i64 noundef %4, i64 noundef %17) #17
  %19 = and i64 %18, 4294967295
  %.not.i = icmp eq i64 %19, 0
  %brmerge.i = or i1 %12, %.not.i
  br i1 %brmerge.i, label %f_integer_p.exit.thread.i, label %f_integer_p.exit.i

f_integer_p.exit.i:                               ; preds = %rb_integer_type_p.exit.thread5.i
  %20 = inttoptr i64 %4 to ptr
  %21 = load i64, ptr %20, align 8, !tbaa !7
  %22 = and i64 %21, 31
  %.not9.i = icmp eq i64 %22, 10
  br i1 %.not9.i, label %nurat_int_check.exit, label %f_integer_p.exit.thread.i

f_integer_p.exit.thread.i:                        ; preds = %f_integer_p.exit.i, %rb_integer_type_p.exit.thread5.i
  %23 = load i64, ptr @rb_eTypeError, align 8, !tbaa !18
  tail call void (i64, ptr, ...) @rb_raise(i64 noundef %23, ptr noundef nonnull @.str.45) #20
  unreachable

nurat_int_check.exit:                             ; preds = %2, %rb_integer_type_p.exit.i, %f_integer_p.exit.i
  %24 = and i64 %6, 1
  %.not.i.i6 = icmp eq i64 %24, 0
  br i1 %.not.i.i6, label %25, label %nurat_int_check.exit14

25:                                               ; preds = %nurat_int_check.exit
  %26 = icmp eq i64 %6, 0
  %27 = and i64 %6, 6
  %28 = icmp ne i64 %27, 0
  %29 = or i1 %26, %28
  br i1 %29, label %rb_integer_type_p.exit.thread5.i8, label %rb_integer_type_p.exit.i7

rb_integer_type_p.exit.i7:                        ; preds = %25
  %30 = inttoptr i64 %6 to ptr
  %31 = load i64, ptr %30, align 8, !tbaa !7
  %32 = and i64 %31, 31
  %33 = icmp eq i64 %32, 10
  br i1 %33, label %INT_NEGATIVE_P.exit.i, label %rb_integer_type_p.exit.thread5.i8

rb_integer_type_p.exit.thread5.i8:                ; preds = %rb_integer_type_p.exit.i7, %25
  %34 = load i64, ptr @rb_cNumeric, align 8, !tbaa !18
  %35 = tail call i64 @rb_obj_is_kind_of(i64 noundef %6, i64 noundef %34) #17
  %36 = and i64 %35, 4294967295
  %.not.i9 = icmp eq i64 %36, 0
  %brmerge.i10 = or i1 %29, %.not.i9
  br i1 %brmerge.i10, label %f_integer_p.exit.thread.i13, label %f_integer_p.exit.i11

f_integer_p.exit.i11:                             ; preds = %rb_integer_type_p.exit.thread5.i8
  %37 = inttoptr i64 %6 to ptr
  %38 = load i64, ptr %37, align 8, !tbaa !7
  %39 = and i64 %38, 31
  %.not9.i12 = icmp eq i64 %39, 10
  br i1 %.not9.i12, label %INT_NEGATIVE_P.exit.i, label %f_integer_p.exit.thread.i13

f_integer_p.exit.thread.i13:                      ; preds = %f_integer_p.exit.i11, %rb_integer_type_p.exit.thread5.i8
  %40 = load i64, ptr @rb_eTypeError, align 8, !tbaa !18
  tail call void (i64, ptr, ...) @rb_raise(i64 noundef %40, ptr noundef nonnull @.str.45) #20
  unreachable

nurat_int_check.exit14:                           ; preds = %nurat_int_check.exit
  %41 = icmp slt i64 %6, 0
  br i1 %41, label %44, label %47

INT_NEGATIVE_P.exit.i:                            ; preds = %rb_integer_type_p.exit.i7, %f_integer_p.exit.i11
  %.pre-phi = phi ptr [ %30, %rb_integer_type_p.exit.i7 ], [ %37, %f_integer_p.exit.i11 ]
  %42 = load i64, ptr %.pre-phi, align 8, !tbaa !7
  %43 = and i64 %42, 8192
  %.not.i.i.i = icmp eq i64 %43, 0
  br i1 %.not.i.i.i, label %44, label %49

44:                                               ; preds = %INT_NEGATIVE_P.exit.i, %nurat_int_check.exit14
  %45 = tail call i64 @rb_int_uminus(i64 noundef %4) #17
  %46 = tail call i64 @rb_int_uminus(i64 noundef %6) #17
  br label %nurat_canonicalize.exit

47:                                               ; preds = %nurat_int_check.exit14
  %48 = icmp eq i64 %6, 1
  br i1 %48, label %51, label %nurat_canonicalize.exit

49:                                               ; preds = %INT_NEGATIVE_P.exit.i
  %50 = tail call i32 @rb_bigzero_p(i64 noundef %6) #17
  %.not.i16 = icmp eq i32 %50, 0
  br i1 %.not.i16, label %nurat_canonicalize.exit, label %51

51:                                               ; preds = %49, %47
  tail call void @rb_num_zerodiv() #19
  unreachable

nurat_canonicalize.exit:                          ; preds = %44, %47, %49
  %.023 = phi i64 [ %45, %44 ], [ %4, %49 ], [ %4, %47 ]
  %.0 = phi i64 [ %46, %44 ], [ %6, %49 ], [ %6, %47 ]
  %52 = inttoptr i64 %0 to ptr
  %53 = getelementptr inbounds nuw i8, ptr %52, i64 16
  store i64 %.023, ptr %53, align 8, !tbaa !18
  %54 = icmp eq i64 %.023, 0
  %55 = and i64 %.023, 7
  %56 = icmp ne i64 %55, 0
  %57 = or i1 %54, %56
  br i1 %57, label %RATIONAL_SET_NUM.exit, label %58

58:                                               ; preds = %nurat_canonicalize.exit
  tail call void @rb_gc_writebarrier(i64 noundef %0, i64 noundef %.023) #17
  br label %RATIONAL_SET_NUM.exit

RATIONAL_SET_NUM.exit:                            ; preds = %nurat_canonicalize.exit, %58
  %59 = getelementptr inbounds nuw i8, ptr %52, i64 24
  store i64 %.0, ptr %59, align 8, !tbaa !18
  %60 = icmp eq i64 %.0, 0
  %61 = and i64 %.0, 7
  %62 = icmp ne i64 %61, 0
  %63 = or i1 %60, %62
  br i1 %63, label %RATIONAL_SET_DEN.exit, label %64

64:                                               ; preds = %RATIONAL_SET_NUM.exit
  tail call void @rb_gc_writebarrier(i64 noundef %0, i64 noundef %.0) #17
  br label %RATIONAL_SET_DEN.exit

RATIONAL_SET_DEN.exit:                            ; preds = %RATIONAL_SET_NUM.exit, %64
  tail call void @rb_obj_freeze_inline(i64 noundef %0) #17
  ret i64 %0
}